target datalayout = "e-m:e-p270:32:32-p271:32:32-p272:64:64-i64:64-i128:128-f80:128-n8:16:32:64-S128"
target triple = "x86_64-pc-linux-gnu"

%struct.TS_resp_ctx = type { ptr, ptr, ptr, ptr, ptr, ptr, ptr, ptr, ptr, ptr, ptr, i32, i32, ptr, ptr, ptr, ptr, ptr, ptr, ptr, ptr, ptr, ptr, ptr }

@.str = private unnamed_addr constant [35 x i8] c"../openssl/crypto/ts/ts_rsp_sign.c\00", align 1

; Function Attrs: inlinehint nounwind uwtable
define internal void @sk_EVP_MD_free(ptr noundef %0) #3 {
  %2 = alloca ptr, align 8
  store ptr %0, ptr %2, align 8, !tbaa !53
  %3 = load ptr, ptr %2, align 8, !tbaa !53
  call void @OPENSSL_sk_free(ptr noundef %3)
  ret void
}

; Function Attrs: inlinehint nounwind uwtable
define internal ptr @ossl_check_ASN1_OBJECT_freefunc_type(ptr noundef %0) #3 {
  %2 = alloca ptr, align 8
  store ptr %0, ptr %2, align 8, !tbaa !30
  %3 = load ptr, ptr %2, align 8, !tbaa !30
  ret ptr %3
}

; Function Attrs: inlinehint nounwind uwtable
define internal ptr @ossl_check_ASN1_OBJECT_sk_type(ptr noundef %0) #3 {
  %2 = alloca ptr, align 8
  store ptr %0, ptr %2, align 8, !tbaa !52
  %3 = load ptr, ptr %2, align 8, !tbaa !52
  ret ptr %3
}

; Function Attrs: nounwind uwtable
define void @TS_RESP_CTX_free(ptr noundef %0) #0 {
  %2 = alloca ptr, align 8
  store ptr %0, ptr %2, align 8, !tbaa !10
  %3 = load ptr, ptr %2, align 8, !tbaa !10
  %4 = icmp ne ptr %3, null
  br i1 %4, label %6, label %5

5:                                                ; preds = %1
  br label %40

6:                                                ; preds = %1
  %7 = load ptr, ptr %2, align 8, !tbaa !10
  %8 = getelementptr inbounds nuw %struct.TS_resp_ctx, ptr %7, i32 0, i32 23
  %9 = load ptr, ptr %8, align 8, !tbaa !12
  call void @CRYPTO_free(ptr noundef %9, ptr noundef @.str, i32 noundef 126)
  %10 = load ptr, ptr %2, align 8, !tbaa !10
  %11 = getelementptr inbounds nuw %struct.TS_resp_ctx, ptr %10, i32 0, i32 0
  %12 = load ptr, ptr %11, align 8, !tbaa !43
  call void @X509_free(ptr noundef %12)
  %13 = load ptr, ptr %2, align 8, !tbaa !10
  %14 = getelementptr inbounds nuw %struct.TS_resp_ctx, ptr %13, i32 0, i32 1
  %15 = load ptr, ptr %14, align 8, !tbaa !44
  call void @EVP_PKEY_free(ptr noundef %15)
  %16 = load ptr, ptr %2, align 8, !tbaa !10
  %17 = getelementptr inbounds nuw %struct.TS_resp_ctx, ptr %16, i32 0, i32 4
  %18 = load ptr, ptr %17, align 8, !tbaa !45
  call void @OSSL_STACK_OF_X509_free(ptr noundef %18)
  %19 = load ptr, ptr %2, align 8, !tbaa !10
  %20 = getelementptr inbounds nuw %struct.TS_resp_ctx, ptr %19, i32 0, i32 5
  %21 = load ptr, ptr %20, align 8, !tbaa !46
  %22 = call ptr @ossl_check_ASN1_OBJECT_sk_type(ptr noundef %21)
  %23 = call ptr @ossl_check_ASN1_OBJECT_freefunc_type(ptr noundef @ASN1_OBJECT_free)
  call void @OPENSSL_sk_pop_free(ptr noundef %22, ptr noundef %23)
  %24 = load ptr, ptr %2, align 8, !tbaa !10
  %25 = getelementptr inbounds nuw %struct.TS_resp_ctx, ptr %24, i32 0, i32 6
  %26 = load ptr, ptr %25, align 8, !tbaa !47
  call void @ASN1_OBJECT_free(ptr noundef %26)
  %27 = load ptr, ptr %2, align 8, !tbaa !10
  %28 = getelementptr inbounds nuw %struct.TS_resp_ctx, ptr %27, i32 0, i32 7
  %29 = load ptr, ptr %28, align 8, !tbaa !48
  call void @sk_EVP_MD_free(ptr noundef %29)
  %30 = load ptr, ptr %2, align 8, !tbaa !10
  %31 = getelementptr inbounds nuw %struct.TS_resp_ctx, ptr %30, i32 0, i32 8
  %32 = load ptr, ptr %31, align 8, !tbaa !49
  call void @ASN1_INTEGER_free(ptr noundef %32)
  %33 = load ptr, ptr %2, align 8, !tbaa !10
  %34 = getelementptr inbounds nuw %struct.TS_resp_ctx, ptr %33, i32 0, i32 9
  %35 = load ptr, ptr %34, align 8, !tbaa !50
  call void @ASN1_INTEGER_free(ptr noundef %35)
  %36 = load ptr, ptr %2, align 8, !tbaa !10
  %37 = getelementptr inbounds nuw %struct.TS_resp_ctx, ptr %36, i32 0, i32 10
  %38 = load ptr, ptr %37, align 8, !tbaa !51
  call void @ASN1_INTEGER_free(ptr noundef %38)
  %39 = load ptr, ptr %2, align 8, !tbaa !10
  call void @CRYPTO_free(ptr noundef %39, ptr noundef @.str, i32 noundef 136)
  br label %40

40:                                               ; preds = %6, %5
  ret void
}