; Function Attrs: nounwind uwtable
define void @TS_RESP_CTX_free(ptr noundef %0) local_unnamed_addr #0 {
  %.not = icmp eq ptr %0, null
  br i1 %.not, label %22, label %2

2:                                                ; preds = %1
  %3 = getelementptr inbounds nuw i8, ptr %0, i64 176
  %4 = load ptr, ptr %3, align 8, !tbaa !3
  tail call void @CRYPTO_free(ptr noundef %4, ptr noundef nonnull @.str, i32 noundef 126) #9
  %5 = load ptr, ptr %0, align 8, !tbaa !36
  tail call void @X509_free(ptr noundef %5) #9
  %6 = getelementptr inbounds nuw i8, ptr %0, i64 8
  %7 = load ptr, ptr %6, align 8, !tbaa !37
  tail call void @EVP_PKEY_free(ptr noundef %7) #9
  %8 = getelementptr inbounds nuw i8, ptr %0, i64 32
  %9 = load ptr, ptr %8, align 8, !tbaa !38
  tail call void @OSSL_STACK_OF_X509_free(ptr noundef %9) #9
  %10 = getelementptr inbounds nuw i8, ptr %0, i64 40
  %11 = load ptr, ptr %10, align 8, !tbaa !39
  tail call void @OPENSSL_sk_pop_free(ptr noundef %11, ptr noundef nonnull @ASN1_OBJECT_free) #9
  %12 = getelementptr inbounds nuw i8, ptr %0, i64 48
  %13 = load ptr, ptr %12, align 8, !tbaa !40
  tail call void @ASN1_OBJECT_free(ptr noundef %13) #9
  %14 = getelementptr inbounds nuw i8, ptr %0, i64 56
  %15 = load ptr, ptr %14, align 8, !tbaa !41
  tail call void @OPENSSL_sk_free(ptr noundef %15) #9
  %16 = getelementptr inbounds nuw i8, ptr %0, i64 64
  %17 = load ptr, ptr %16, align 8, !tbaa !42
  tail call void @ASN1_INTEGER_free(ptr noundef %17) #9
  %18 = getelementptr inbounds nuw i8, ptr %0, i64 72
  %19 = load ptr, ptr %18, align 8, !tbaa !43
  tail call void @ASN1_INTEGER_free(ptr noundef %19) #9
  %20 = getelementptr inbounds nuw i8, ptr %0, i64 80
  %21 = load ptr, ptr %20, align 8, !tbaa !44
  tail call void @ASN1_INTEGER_free(ptr noundef %21) #9
  tail call void @CRYPTO_free(ptr noundef nonnull %0, ptr noundef nonnull @.str, i32 noundef 136) #9
  br label %22

22:                                               ; preds = %1, %2
  ret void
}